target datalayout = "e-m:e-p270:32:32-p271:32:32-p272:64:64-i64:64-i128:128-f80:128-n8:16:32:64-S128"
target triple = "x86_64-pc-linux-gnu"

@hf_s7comm_userdata_data = internal global i32 0, align 4
@hf_s7comm_pbc_bsend_len = internal global i32 0, align 4
@s7comm_heur_subdissector_list = internal global ptr null, align 8

; Function Attrs: null_pointer_is_valid sspstrong uwtable
define internal i32 @s7comm_decode_ud_pbc_bsend_subfunc(ptr noundef %0, ptr noundef %1, i32 noundef %2, i32 noundef %3, ptr noundef %4, ptr noundef %5) #0 {
  %7 = alloca ptr, align 8
  %8 = alloca ptr, align 8
  %9 = alloca i32, align 4
  %10 = alloca i32, align 4
  %11 = alloca ptr, align 8
  %12 = alloca ptr, align 8
  %13 = alloca ptr, align 8
  %14 = alloca ptr, align 8
  store ptr %0, ptr %7, align 8
  store ptr %1, ptr %8, align 8
  store i32 %2, ptr %9, align 4
  store i32 %3, ptr %10, align 4
  store ptr %4, ptr %11, align 8
  store ptr %5, ptr %12, align 8
  %15 = load ptr, ptr %8, align 8
  %16 = load i32, ptr @hf_s7comm_pbc_bsend_len, align 4
  %17 = load ptr, ptr %7, align 8
  %18 = load i32, ptr %10, align 4
  %19 = call ptr @proto_tree_add_item(ptr noundef %15, i32 noundef %16, ptr noundef %17, i32 noundef %18, i32 noundef 2, i32 noundef 0)
  %20 = load i32, ptr %10, align 4
  %21 = add i32 %20, 2
  store i32 %21, ptr %10, align 4
  %22 = load ptr, ptr %8, align 8
  %23 = load i32, ptr @hf_s7comm_userdata_data, align 4
  %24 = load ptr, ptr %7, align 8
  %25 = load i32, ptr %10, align 4
  %26 = load i32, ptr %9, align 4
  %27 = sub i32 %26, 2
  %28 = call ptr @proto_tree_add_item(ptr noundef %22, i32 noundef %23, ptr noundef %24, i32 noundef %25, i32 noundef %27, i32 noundef 0)
  %29 = load ptr, ptr %7, align 8
  %30 = load i32, ptr %10, align 4
  %31 = call i32 @tvb_reported_length_remaining(ptr noundef %29, i32 noundef %30)
  %32 = icmp sgt i32 %31, 0
  br i1 %32, label %33, label %48

33:                                               ; preds = %6
  call void @llvm.lifetime.start.p0(i64 8, ptr %13) #8
  %34 = load ptr, ptr %7, align 8
  %35 = load i32, ptr %10, align 4
  %36 = call ptr @tvb_new_subset_remaining(ptr noundef %34, i32 noundef %35)
  store ptr %36, ptr %13, align 8
  call void @llvm.lifetime.start.p0(i64 8, ptr %14) #8
  %37 = load ptr, ptr @s7comm_heur_subdissector_list, align 8
  %38 = load ptr, ptr %13, align 8
  %39 = load ptr, ptr %11, align 8
  %40 = load ptr, ptr %12, align 8
  %41 = call zeroext i1 @dissector_try_heuristic(ptr noundef %37, ptr noundef %38, ptr noundef %39, ptr noundef %40, ptr noundef %14, ptr noundef null)
  br i1 %41, label %47, label %42

42:                                               ; preds = %33
  %43 = load ptr, ptr %13, align 8
  %44 = load ptr, ptr %11, align 8
  %45 = load ptr, ptr %8, align 8
  %46 = call i32 @call_data_dissector(ptr noundef %43, ptr noundef %44, ptr noundef %45)
  br label %47

47:                                               ; preds = %42, %33
  call void @llvm.lifetime.end.p0(i64 8, ptr %14) #8
  call void @llvm.lifetime.end.p0(i64 8, ptr %13) #8
  br label %48

48:                                               ; preds = %47, %6
  %49 = load i32, ptr %9, align 4
  %50 = sub i32 %49, 2
  %51 = load i32, ptr %10, align 4
  %52 = add i32 %51, %50
  store i32 %52, ptr %10, align 4
  %53 = load i32, ptr %10, align 4
  ret i32 %53
}