; Function Attrs: null_pointer_is_valid sspstrong uwtable
define internal fastcc noundef i32 @s7comm_decode_ud_pbc_bsend_subfunc(ptr noundef %0, ptr noundef %1, i32 noundef range(i32 1, 0) %2, i32 noundef %3, ptr noundef %4, ptr noundef %5) unnamed_addr #0 {
  %7 = alloca ptr, align 8
  %8 = load i32, ptr @hf_s7comm_pbc_bsend_len, align 4
  %9 = tail call ptr @proto_tree_add_item(ptr noundef %1, i32 noundef %8, ptr noundef %0, i32 noundef %3, i32 noundef 2, i32 noundef 0)
  %10 = add i32 %3, 2
  %11 = load i32, ptr @hf_s7comm_userdata_data, align 4
  %12 = add i32 %2, -2
  %13 = tail call ptr @proto_tree_add_item(ptr noundef %1, i32 noundef %11, ptr noundef %0, i32 noundef %10, i32 noundef %12, i32 noundef 0)
  %14 = tail call i32 @tvb_reported_length_remaining(ptr noundef %0, i32 noundef %10)
  %15 = icmp sgt i32 %14, 0
  br i1 %15, label %16, label %23

16:                                               ; preds = %6
  %17 = tail call ptr @tvb_new_subset_remaining(ptr noundef %0, i32 noundef %10)
  call void @llvm.lifetime.start.p0(i64 8, ptr nonnull %7) #8
  %18 = load ptr, ptr @s7comm_heur_subdissector_list, align 8
  %19 = call zeroext i1 @dissector_try_heuristic(ptr noundef %18, ptr noundef %17, ptr noundef %4, ptr noundef %5, ptr noundef nonnull %7, ptr noundef null)
  br i1 %19, label %22, label %20

20:                                               ; preds = %16
  %21 = call i32 @call_data_dissector(ptr noundef %17, ptr noundef %4, ptr noundef %1)
  br label %22

22:                                               ; preds = %20, %16
  call void @llvm.lifetime.end.p0(i64 8, ptr nonnull %7) #8
  br label %23

23:                                               ; preds = %22, %6
  %24 = add i32 %3, %2
  ret i32 %24
}